; Function Attrs: mustprogress nofree norecurse nosync nounwind willreturn memory(read, inaccessiblemem: none) uwtable
define hidden noundef i32 @_ZNK6Method22highest_osr_comp_levelEv(ptr nocapture noundef nonnull readonly align 8 dereferenceable(88) %0) local_unnamed_addr #7 align 2 {
  %2 = getelementptr inbounds i8, ptr %0, i64 24
  %3 = load ptr, ptr %2, align 8
  %.not = icmp eq ptr %3, null
  br i1 %.not, label %8, label %4

4:                                                ; preds = %1
  %5 = getelementptr inbounds i8, ptr %3, i64 45
  %6 = load i8, ptr %5, align 1
  %7 = zext i8 %6 to i32
  br label %8

8:                                                ; preds = %1, %4
  %.0 = phi i32 [ %7, %4 ], [ 0, %1 ]
  ret i32 %.0
}